; ModuleID = '31/1842.c'
source_filename = "31/1842.c"
target datalayout = "e-m:e-p270:32:32-p271:32:32-p272:64:64-i64:64-f80:128-n8:16:32:64-S128"
target triple = "x86_64-pc-linux-gnu"

%struct.stu = type { [15 x i8], [20 x i8], i8, i32, [10 x i8], [20 x i8], %struct.stu* }

@.str = private unnamed_addr constant [16 x i8] c"%s%s %c %d %s%s\00", align 1
@n = common dso_local global i32 0, align 4
@.str.1 = private unnamed_addr constant [19 x i8] c"%s %s %c %d %s %s\0A\00", align 1

; Function Attrs: noinline nounwind uwtable
define dso_local %struct.stu* @creat() #0 {
  %1 = alloca %struct.stu*, align 8
  %2 = alloca %struct.stu*, align 8
  %3 = alloca %struct.stu*, align 8
  %4 = call noalias i8* @malloc(i64 100) #3
  %5 = bitcast i8* %4 to %struct.stu*
  store %struct.stu* %5, %struct.stu** %3, align 8
  store %struct.stu* %5, %struct.stu** %2, align 8
  %6 = load %struct.stu*, %struct.stu** %2, align 8
  %7 = getelementptr inbounds %struct.stu, %struct.stu* %6, i32 0, i32 0
  %8 = getelementptr inbounds [15 x i8], [15 x i8]* %7, i64 0, i64 0
  %9 = load %struct.stu*, %struct.stu** %2, align 8
  %10 = getelementptr inbounds %struct.stu, %struct.stu* %9, i32 0, i32 1
  %11 = getelementptr inbounds [20 x i8], [20 x i8]* %10, i64 0, i64 0
  %12 = load %struct.stu*, %struct.stu** %2, align 8
  %13 = getelementptr inbounds %struct.stu, %struct.stu* %12, i32 0, i32 2
  %14 = load %struct.stu*, %struct.stu** %2, align 8
  %15 = getelementptr inbounds %struct.stu, %struct.stu* %14, i32 0, i32 3
  %16 = load %struct.stu*, %struct.stu** %2, align 8
  %17 = getelementptr inbounds %struct.stu, %struct.stu* %16, i32 0, i32 4
  %18 = getelementptr inbounds [10 x i8], [10 x i8]* %17, i64 0, i64 0
  %19 = load %struct.stu*, %struct.stu** %2, align 8
  %20 = getelementptr inbounds %struct.stu, %struct.stu* %19, i32 0, i32 5
  %21 = getelementptr inbounds [20 x i8], [20 x i8]* %20, i64 0, i64 0
  %22 = call i32 (i8*, ...) @__isoc99_scanf(i8* getelementptr inbounds ([16 x i8], [16 x i8]* @.str, i64 0, i64 0), i8* %8, i8* %11, i8* %13, i32* %15, i8* %18, i8* %21)
  store i32 0, i32* @n, align 4
  br label %23

23:                                               ; preds = %68, %0
  %24 = load %struct.stu*, %struct.stu** %2, align 8
  %25 = getelementptr inbounds %struct.stu, %struct.stu* %24, i32 0, i32 2
  %26 = load i8, i8* %25, align 1
  %27 = sext i8 %26 to i32
  %28 = icmp eq i32 %27, 102
  br i1 %28, label %35, label %29

29:                                               ; preds = %23
  %30 = load %struct.stu*, %struct.stu** %2, align 8
  %31 = getelementptr inbounds %struct.stu, %struct.stu* %30, i32 0, i32 2
  %32 = load i8, i8* %31, align 1
  %33 = sext i8 %32 to i32
  %34 = icmp eq i32 %33, 109
  br label %35

35:                                               ; preds = %29, %23
  %36 = phi i1 [ true, %23 ], [ %34, %29 ]
  br i1 %36, label %37, label %71

37:                                               ; preds = %35
  %38 = load i32, i32* @n, align 4
  %39 = icmp eq i32 %38, 0
  br i1 %39, label %40, label %43

40:                                               ; preds = %37
  %41 = load %struct.stu*, %struct.stu** %2, align 8
  %42 = getelementptr inbounds %struct.stu, %struct.stu* %41, i32 0, i32 6
  store %struct.stu* null, %struct.stu** %42, align 8
  br label %47

43:                                               ; preds = %37
  %44 = load %struct.stu*, %struct.stu** %3, align 8
  %45 = load %struct.stu*, %struct.stu** %2, align 8
  %46 = getelementptr inbounds %struct.stu, %struct.stu* %45, i32 0, i32 6
  store %struct.stu* %44, %struct.stu** %46, align 8
  br label %47

47:                                               ; preds = %43, %40
  %48 = load %struct.stu*, %struct.stu** %2, align 8
  store %struct.stu* %48, %struct.stu** %3, align 8
  %49 = call noalias i8* @malloc(i64 100) #3
  %50 = bitcast i8* %49 to %struct.stu*
  store %struct.stu* %50, %struct.stu** %2, align 8
  %51 = load %struct.stu*, %struct.stu** %2, align 8
  %52 = getelementptr inbounds %struct.stu, %struct.stu* %51, i32 0, i32 0
  %53 = getelementptr inbounds [15 x i8], [15 x i8]* %52, i64 0, i64 0
  %54 = load %struct.stu*, %struct.stu** %2, align 8
  %55 = getelementptr inbounds %struct.stu, %struct.stu* %54, i32 0, i32 1
  %56 = getelementptr inbounds [20 x i8], [20 x i8]* %55, i64 0, i64 0
  %57 = load %struct.stu*, %struct.stu** %2, align 8
  %58 = getelementptr inbounds %struct.stu, %struct.stu* %57, i32 0, i32 2
  %59 = load %struct.stu*, %struct.stu** %2, align 8
  %60 = getelementptr inbounds %struct.stu, %struct.stu* %59, i32 0, i32 3
  %61 = load %struct.stu*, %struct.stu** %2, align 8
  %62 = getelementptr inbounds %struct.stu, %struct.stu* %61, i32 0, i32 4
  %63 = getelementptr inbounds [10 x i8], [10 x i8]* %62, i64 0, i64 0
  %64 = load %struct.stu*, %struct.stu** %2, align 8
  %65 = getelementptr inbounds %struct.stu, %struct.stu* %64, i32 0, i32 5
  %66 = getelementptr inbounds [20 x i8], [20 x i8]* %65, i64 0, i64 0
  %67 = call i32 (i8*, ...) @__isoc99_scanf(i8* getelementptr inbounds ([16 x i8], [16 x i8]* @.str, i64 0, i64 0), i8* %53, i8* %56, i8* %58, i32* %60, i8* %63, i8* %66)
  br label %68

68:                                               ; preds = %47
  %69 = load i32, i32* @n, align 4
  %70 = add nsw i32 %69, 1
  store i32 %70, i32* @n, align 4
  br label %23

71:                                               ; preds = %35
  %72 = load %struct.stu*, %struct.stu** %3, align 8
  store %struct.stu* %72, %struct.stu** %1, align 8
  %73 = load %struct.stu*, %struct.stu** %1, align 8
  ret %struct.stu* %73
}

; Function Attrs: nounwind
declare dso_local noalias i8* @malloc(i64) #1

declare dso_local i32 @__isoc99_scanf(i8*, ...) #2

; Function Attrs: noinline nounwind uwtable
define dso_local void @print(%struct.stu* %0) #0 {
  %2 = alloca %struct.stu*, align 8
  %3 = alloca %struct.stu*, align 8
  store %struct.stu* %0, %struct.stu** %2, align 8
  %4 = load %struct.stu*, %struct.stu** %2, align 8
  %5 = icmp ne %struct.stu* %4, null
  br i1 %5, label %6, label %37

6:                                                ; preds = %1
  %7 = load %struct.stu*, %struct.stu** %2, align 8
  store %struct.stu* %7, %struct.stu** %3, align 8
  br label %8

8:                                                ; preds = %32, %6
  %9 = load %struct.stu*, %struct.stu** %3, align 8
  %10 = icmp ne %struct.stu* %9, null
  br i1 %10, label %11, label %36

11:                                               ; preds = %8
  %12 = load %struct.stu*, %struct.stu** %3, align 8
  %13 = getelementptr inbounds %struct.stu, %struct.stu* %12, i32 0, i32 0
  %14 = getelementptr inbounds [15 x i8], [15 x i8]* %13, i64 0, i64 0
  %15 = load %struct.stu*, %struct.stu** %3, align 8
  %16 = getelementptr inbounds %struct.stu, %struct.stu* %15, i32 0, i32 1
  %17 = getelementptr inbounds [20 x i8], [20 x i8]* %16, i64 0, i64 0
  %18 = load %struct.stu*, %struct.stu** %3, align 8
  %19 = getelementptr inbounds %struct.stu, %struct.stu* %18, i32 0, i32 2
  %20 = load i8, i8* %19, align 1
  %21 = sext i8 %20 to i32
  %22 = load %struct.stu*, %struct.stu** %3, align 8
  %23 = getelementptr inbounds %struct.stu, %struct.stu* %22, i32 0, i32 3
  %24 = load i32, i32* %23, align 4
  %25 = load %struct.stu*, %struct.stu** %3, align 8
  %26 = getelementptr inbounds %struct.stu, %struct.stu* %25, i32 0, i32 4
  %27 = getelementptr inbounds [10 x i8], [10 x i8]* %26, i64 0, i64 0
  %28 = load %struct.stu*, %struct.stu** %3, align 8
  %29 = getelementptr inbounds %struct.stu, %struct.stu* %28, i32 0, i32 5
  %30 = getelementptr inbounds [20 x i8], [20 x i8]* %29, i64 0, i64 0
  %31 = call i32 (i8*, ...) @printf(i8* getelementptr inbounds ([19 x i8], [19 x i8]* @.str.1, i64 0, i64 0), i8* %14, i8* %17, i32 %21, i32 %24, i8* %27, i8* %30)
  br label %32

32:                                               ; preds = %11
  %33 = load %struct.stu*, %struct.stu** %3, align 8
  %34 = getelementptr inbounds %struct.stu, %struct.stu* %33, i32 0, i32 6
  %35 = load %struct.stu*, %struct.stu** %34, align 8
  store %struct.stu* %35, %struct.stu** %3, align 8
  br label %8

36:                                               ; preds = %8
  br label %37

37:                                               ; preds = %36, %1
  ret void
}

declare dso_local i32 @printf(i8*, ...) #2

; Function Attrs: noinline nounwind uwtable
define dso_local void @main() #0 {
  %1 = alloca %struct.stu*, align 8
  %2 = call %struct.stu* @creat()
  store %struct.stu* %2, %struct.stu** %1, align 8
  %3 = load %struct.stu*, %struct.stu** %1, align 8
  call void @print(%struct.stu* %3)
  ret void
}


!llvm.module.flags = !{!0}
!llvm.ident = !{!1}

!0 = !{i32 1, !"wchar_size", i32 4}
!1 = !{!"clang version 10.0.0-4ubuntu1 "}
